target datalayout = "e-m:e-p270:32:32-p271:32:32-p272:64:64-i64:64-i128:128-f80:128-n8:16:32:64-S128"
target triple = "x86_64-pc-linux-gnu"

; Function Attrs: nounwind uwtable
define internal i32 @get_le24(ptr noundef %0) #0 {
  %2 = alloca ptr, align 8
  store ptr %0, ptr %2, align 8
  %3 = load ptr, ptr %2, align 8
  %4 = load i16, ptr %3, align 2
  %5 = zext i16 %4 to i32
  %6 = load ptr, ptr %2, align 8
  %7 = getelementptr i8, ptr %6, i64 2
  %8 = load i8, ptr %7, align 1
  %9 = zext i8 %8 to i32
  %10 = shl i32 %9, 16
  %11 = or i32 %5, %10
  ret i32 %11
}

; Function Attrs: nounwind uwtable
define internal i32 @get_index_pos(ptr noundef %0, i32 noundef %1, ptr noundef %2, i32 noundef %3) #0 {
  %5 = alloca i32, align 4
  %6 = alloca ptr, align 8
  %7 = alloca i32, align 4
  %8 = alloca ptr, align 8
  %9 = alloca i32, align 4
  %10 = alloca i32, align 4
  %11 = alloca i32, align 4
  %12 = alloca i32, align 4
  %13 = alloca i32, align 4
  %14 = alloca i32, align 4
  store ptr %0, ptr %6, align 8
  store i32 %1, ptr %7, align 4
  store ptr %2, ptr %8, align 8
  store i32 %3, ptr %9, align 4
  store i32 0, ptr %12, align 4
  %15 = load ptr, ptr %8, align 8
  %16 = call i32 @get_le24(ptr noundef %15)
  store i32 %16, ptr %11, align 4
  %17 = load i32, ptr %11, align 4
  %18 = and i32 %17, 2097151
  store i32 %18, ptr %10, align 4
  %19 = load i32, ptr %7, align 4
  %20 = load i32, ptr %10, align 4
  %21 = icmp ult i32 %19, %20
  br i1 %21, label %22, label %24

22:                                               ; preds = %4
  %23 = load ptr, ptr %6, align 8
  store i32 0, ptr %23, align 4
  store i32 0, ptr %5, align 4
  br label %80

24:                                               ; preds = %4
  %25 = load i32, ptr %9, align 4
  %26 = sub i32 %25, 1
  store i32 %26, ptr %13, align 4
  %27 = load ptr, ptr %8, align 8
  %28 = load i32, ptr %13, align 4
  %29 = mul i32 %28, 3
  %30 = sext i32 %29 to i64
  %31 = getelementptr i8, ptr %27, i64 %30
  %32 = call i32 @get_le24(ptr noundef %31)
  store i32 %32, ptr %10, align 4
  %33 = load i32, ptr %7, align 4
  %34 = load i32, ptr %10, align 4
  %35 = icmp uge i32 %33, %34
  br i1 %35, label %36, label %37

36:                                               ; preds = %24
  store i32 -1, ptr %5, align 4
  br label %80

37:                                               ; preds = %24
  br label %38

38:                                               ; preds = %63, %37
  %39 = load i32, ptr %13, align 4
  %40 = load i32, ptr %12, align 4
  %41 = sub i32 %39, %40
  %42 = icmp sgt i32 %41, 1
  br i1 %42, label %43, label %64

43:                                               ; preds = %38
  %44 = load i32, ptr %13, align 4
  %45 = load i32, ptr %12, align 4
  %46 = add i32 %44, %45
  %47 = sdiv i32 %46, 2
  store i32 %47, ptr %14, align 4
  %48 = load ptr, ptr %8, align 8
  %49 = load i32, ptr %14, align 4
  %50 = mul i32 %49, 3
  %51 = sext i32 %50 to i64
  %52 = getelementptr i8, ptr %48, i64 %51
  %53 = call i32 @get_le24(ptr noundef %52)
  store i32 %53, ptr %11, align 4
  %54 = load i32, ptr %11, align 4
  %55 = and i32 %54, 2097151
  store i32 %55, ptr %10, align 4
  %56 = load i32, ptr %7, align 4
  %57 = load i32, ptr %10, align 4
  %58 = icmp ult i32 %56, %57
  br i1 %58, label %59, label %61

59:                                               ; preds = %43
  %60 = load i32, ptr %14, align 4
  store i32 %60, ptr %13, align 4
  br label %63

61:                                               ; preds = %43
  %62 = load i32, ptr %14, align 4
  store i32 %62, ptr %12, align 4
  br label %63

63:                                               ; preds = %61, %59
  br label %38, !llvm.loop !35

64:                                               ; preds = %38
  %65 = load ptr, ptr %8, align 8
  %66 = load i32, ptr %12, align 4
  %67 = mul i32 %66, 3
  %68 = sext i32 %67 to i64
  %69 = getelementptr i8, ptr %65, i64 %68
  %70 = call i32 @get_le24(ptr noundef %69)
  store i32 %70, ptr %11, align 4
  %71 = load i32, ptr %11, align 4
  %72 = and i32 %71, 2097151
  %73 = load ptr, ptr %6, align 8
  store i32 %72, ptr %73, align 4
  %74 = load i32, ptr %12, align 4
  %75 = add i32 %74, 1
  %76 = mul i32 %75, 32
  %77 = load i32, ptr %11, align 4
  %78 = lshr i32 %77, 21
  %79 = add i32 %76, %78
  store i32 %79, ptr %5, align 4
  br label %80

80:                                               ; preds = %64, %36, %22
  %81 = load i32, ptr %5, align 4
  ret i32 %81
}

; Function Attrs: nounwind uwtable
define internal i32 @lre_is_in_table(i32 noundef %0, ptr noundef %1, ptr noundef %2, i32 noundef %3) #0 {
  %5 = alloca i32, align 4
  %6 = alloca i32, align 4
  %7 = alloca ptr, align 8
  %8 = alloca ptr, align 8
  %9 = alloca i32, align 4
  %10 = alloca i32, align 4
  %11 = alloca i32, align 4
  %12 = alloca i32, align 4
  %13 = alloca i32, align 4
  %14 = alloca ptr, align 8
  store i32 %0, ptr %6, align 4
  store ptr %1, ptr %7, align 8
  store ptr %2, ptr %8, align 8
  store i32 %3, ptr %9, align 4
  %15 = load i32, ptr %6, align 4
  %16 = load ptr, ptr %8, align 8
  %17 = load i32, ptr %9, align 4
  %18 = call i32 @get_index_pos(ptr noundef %10, i32 noundef %15, ptr noundef %16, i32 noundef %17)
  store i32 %18, ptr %13, align 4
  %19 = load i32, ptr %13, align 4
  %20 = icmp slt i32 %19, 0
  br i1 %20, label %21, label %22

21:                                               ; preds = %4
  store i32 0, ptr %5, align 4
  br label %110

22:                                               ; preds = %4
  %23 = load ptr, ptr %7, align 8
  %24 = load i32, ptr %13, align 4
  %25 = sext i32 %24 to i64
  %26 = getelementptr i8, ptr %23, i64 %25
  store ptr %26, ptr %14, align 8
  store i32 0, ptr %12, align 4
  br label %27

27:                                               ; preds = %107, %22
  %28 = load ptr, ptr %14, align 8
  %29 = getelementptr i8, ptr %28, i32 1
  store ptr %29, ptr %14, align 8
  %30 = load i8, ptr %28, align 1
  %31 = zext i8 %30 to i32
  store i32 %31, ptr %11, align 4
  %32 = load i32, ptr %11, align 4
  %33 = icmp ult i32 %32, 64
  br i1 %33, label %34, label %53

34:                                               ; preds = %27
  %35 = load i32, ptr %11, align 4
  %36 = lshr i32 %35, 3
  %37 = add i32 %36, 1
  %38 = load i32, ptr %10, align 4
  %39 = add i32 %38, %37
  store i32 %39, ptr %10, align 4
  %40 = load i32, ptr %6, align 4
  %41 = load i32, ptr %10, align 4
  %42 = icmp ult i32 %40, %41
  br i1 %42, label %43, label %45

43:                                               ; preds = %34
  %44 = load i32, ptr %12, align 4
  store i32 %44, ptr %5, align 4
  br label %110

45:                                               ; preds = %34
  %46 = load i32, ptr %12, align 4
  %47 = xor i32 %46, 1
  store i32 %47, ptr %12, align 4
  %48 = load i32, ptr %11, align 4
  %49 = and i32 %48, 7
  %50 = add i32 %49, 1
  %51 = load i32, ptr %10, align 4
  %52 = add i32 %51, %50
  store i32 %52, ptr %10, align 4
  br label %101

53:                                               ; preds = %27
  %54 = load i32, ptr %11, align 4
  %55 = icmp uge i32 %54, 128
  br i1 %55, label %56, label %62

56:                                               ; preds = %53
  %57 = load i32, ptr %11, align 4
  %58 = sub i32 %57, 128
  %59 = add i32 %58, 1
  %60 = load i32, ptr %10, align 4
  %61 = add i32 %60, %59
  store i32 %61, ptr %10, align 4
  br label %100

62:                                               ; preds = %53
  %63 = load i32, ptr %11, align 4
  %64 = icmp ult i32 %63, 96
  br i1 %64, label %65, label %79

65:                                               ; preds = %62
  %66 = load i32, ptr %11, align 4
  %67 = sub i32 %66, 64
  %68 = shl i32 %67, 8
  %69 = load ptr, ptr %14, align 8
  %70 = getelementptr i8, ptr %69, i64 0
  %71 = load i8, ptr %70, align 1
  %72 = zext i8 %71 to i32
  %73 = or i32 %68, %72
  %74 = add i32 %73, 1
  %75 = load i32, ptr %10, align 4
  %76 = add i32 %75, %74
  store i32 %76, ptr %10, align 4
  %77 = load ptr, ptr %14, align 8
  %78 = getelementptr i8, ptr %77, i32 1
  store ptr %78, ptr %14, align 8
  br label %99

79:                                               ; preds = %62
  %80 = load i32, ptr %11, align 4
  %81 = sub i32 %80, 96
  %82 = shl i32 %81, 16
  %83 = load ptr, ptr %14, align 8
  %84 = getelementptr i8, ptr %83, i64 0
  %85 = load i8, ptr %84, align 1
  %86 = zext i8 %85 to i32
  %87 = shl i32 %86, 8
  %88 = or i32 %82, %87
  %89 = load ptr, ptr %14, align 8
  %90 = getelementptr i8, ptr %89, i64 1
  %91 = load i8, ptr %90, align 1
  %92 = zext i8 %91 to i32
  %93 = or i32 %88, %92
  %94 = add i32 %93, 1
  %95 = load i32, ptr %10, align 4
  %96 = add i32 %95, %94
  store i32 %96, ptr %10, align 4
  %97 = load ptr, ptr %14, align 8
  %98 = getelementptr i8, ptr %97, i64 2
  store ptr %98, ptr %14, align 8
  br label %99

99:                                               ; preds = %79, %65
  br label %100

100:                                              ; preds = %99, %56
  br label %101

101:                                              ; preds = %100, %45
  %102 = load i32, ptr %6, align 4
  %103 = load i32, ptr %10, align 4
  %104 = icmp ult i32 %102, %103
  br i1 %104, label %105, label %107

105:                                              ; preds = %101
  %106 = load i32, ptr %12, align 4
  store i32 %106, ptr %5, align 4
  br label %110

107:                                              ; preds = %101
  %108 = load i32, ptr %12, align 4
  %109 = xor i32 %108, 1
  store i32 %109, ptr %12, align 4
  br label %27

110:                                              ; preds = %105, %43, %21
  %111 = load i32, ptr %5, align 4
  ret i32 %111
}