; Function Attrs: nofree norecurse nosync nounwind memory(read, inaccessiblemem: none) uwtable
define internal fastcc i32 @lre_is_in_table(i32 noundef %0, ptr nocapture noundef readonly %1, ptr nocapture noundef readonly %2, i32 noundef %3) unnamed_addr #2 {
  %.val.i = load i16, ptr %2, align 2
  %5 = getelementptr i8, ptr %2, i64 2
  %.val31.i = load i8, ptr %5, align 1
  %6 = zext i16 %.val.i to i32
  %7 = zext i8 %.val31.i to i32
  %8 = shl nuw nsw i32 %7, 16
  %.masked.i = and i32 %8, 2031616
  %9 = or disjoint i32 %.masked.i, %6
  %10 = icmp ugt i32 %9, %0
  br i1 %10, label %get_index_pos.exit.thread41, label %11

11:                                               ; preds = %4
  %12 = add nsw i32 %3, -1
  %13 = mul nuw nsw i32 %12, 3
  %14 = zext nneg i32 %13 to i64
  %15 = getelementptr i8, ptr %2, i64 %14
  %.val32.i = load i16, ptr %15, align 2
  %16 = getelementptr i8, ptr %15, i64 2
  %.val33.i = load i8, ptr %16, align 1
  %17 = zext i16 %.val32.i to i32
  %18 = zext i8 %.val33.i to i32
  %19 = shl nuw nsw i32 %18, 16
  %20 = or disjoint i32 %19, %17
  %.not.i = icmp ugt i32 %20, %0
  br i1 %.not.i, label %.preheader.i, label %get_index_pos.exit.thread

.preheader.i:                                     ; preds = %11
  %21 = icmp sgt i32 %3, 2
  br i1 %21, label %.lr.ph.i, label %get_index_pos.exit

.lr.ph.i:                                         ; preds = %.preheader.i, %.lr.ph.i
  %.02741.i = phi i32 [ %..027.i, %.lr.ph.i ], [ %12, %.preheader.i ]
  %.02840.i = phi i32 [ %.028..i, %.lr.ph.i ], [ 0, %.preheader.i ]
  %22 = add i32 %.02840.i, %.02741.i
  %23 = sdiv i32 %22, 2
  %24 = mul i32 %23, 3
  %25 = sext i32 %24 to i64
  %26 = getelementptr i8, ptr %2, i64 %25
  %.val34.i = load i16, ptr %26, align 2
  %27 = getelementptr i8, ptr %26, i64 2
  %.val35.i = load i8, ptr %27, align 1
  %28 = zext i16 %.val34.i to i32
  %29 = zext i8 %.val35.i to i32
  %30 = shl nuw nsw i32 %29, 16
  %.masked39.i = and i32 %30, 2031616
  %31 = or disjoint i32 %.masked39.i, %28
  %32 = icmp ugt i32 %31, %0
  %.028..i = select i1 %32, i32 %.02840.i, i32 %23
  %..027.i = select i1 %32, i32 %23, i32 %.02741.i
  %33 = sub i32 %..027.i, %.028..i
  %34 = icmp sgt i32 %33, 1
  br i1 %34, label %.lr.ph.i, label %get_index_pos.exit, !llvm.loop !13

get_index_pos.exit:                               ; preds = %.lr.ph.i, %.preheader.i
  %.028.lcssa.i = phi i32 [ 0, %.preheader.i ], [ %.028..i, %.lr.ph.i ]
  %35 = mul i32 %.028.lcssa.i, 3
  %36 = sext i32 %35 to i64
  %37 = getelementptr i8, ptr %2, i64 %36
  %.val36.i = load i16, ptr %37, align 2
  %38 = getelementptr i8, ptr %37, i64 2
  %.val37.i = load i8, ptr %38, align 1
  %39 = zext i16 %.val36.i to i32
  %40 = zext i8 %.val37.i to i32
  %41 = shl nuw nsw i32 %40, 16
  %.masked38.i = and i32 %41, 2031616
  %42 = or disjoint i32 %.masked38.i, %39
  %43 = shl i32 %.028.lcssa.i, 5
  %44 = add i32 %43, 32
  %45 = lshr i32 %40, 5
  %46 = or disjoint i32 %45, %44
  %47 = icmp slt i32 %46, 0
  br i1 %47, label %get_index_pos.exit.thread, label %get_index_pos.exit.thread41

get_index_pos.exit.thread41:                      ; preds = %4, %get_index_pos.exit
  %.0.i45 = phi i32 [ %46, %get_index_pos.exit ], [ 0, %4 ]
  %.03744 = phi i32 [ %42, %get_index_pos.exit ], [ 0, %4 ]
  %48 = zext nneg i32 %.0.i45 to i64
  %49 = getelementptr i8, ptr %1, i64 %48
  br label %50

50:                                               ; preds = %93, %get_index_pos.exit.thread41
  %.138 = phi i32 [ %.03744, %get_index_pos.exit.thread41 ], [ %.2, %93 ]
  %.027 = phi i32 [ 0, %get_index_pos.exit.thread41 ], [ %94, %93 ]
  %.0 = phi ptr [ %49, %get_index_pos.exit.thread41 ], [ %.1, %93 ]
  %51 = getelementptr i8, ptr %.0, i64 1
  %52 = load i8, ptr %.0, align 1
  %53 = zext i8 %52 to i32
  %54 = icmp ult i8 %52, 64
  br i1 %54, label %55, label %65

55:                                               ; preds = %50
  %56 = lshr i32 %53, 3
  %57 = add i32 %.138, 1
  %58 = add i32 %57, %56
  %59 = icmp ugt i32 %58, %0
  br i1 %59, label %get_index_pos.exit.thread, label %60

60:                                               ; preds = %55
  %61 = xor i32 %.027, 1
  %62 = and i32 %53, 7
  %63 = add nuw nsw i32 %62, 1
  %64 = add i32 %63, %58
  br label %91

65:                                               ; preds = %50
  %66 = icmp slt i8 %52, 0
  br i1 %66, label %67, label %70

67:                                               ; preds = %65
  %68 = add i32 %.138, -127
  %69 = add i32 %68, %53
  br label %91

70:                                               ; preds = %65
  %71 = icmp ult i8 %52, 96
  %72 = load i8, ptr %51, align 1
  %73 = zext i8 %72 to i32
  br i1 %71, label %74, label %80

74:                                               ; preds = %70
  %75 = shl nuw nsw i32 %53, 8
  %76 = add i32 %.138, -16383
  %77 = add i32 %76, %75
  %78 = add i32 %77, %73
  %79 = getelementptr i8, ptr %.0, i64 2
  br label %91

80:                                               ; preds = %70
  %81 = shl nuw nsw i32 %53, 16
  %82 = shl nuw nsw i32 %73, 8
  %83 = getelementptr i8, ptr %.0, i64 2
  %84 = load i8, ptr %83, align 1
  %85 = zext i8 %84 to i32
  %86 = add i32 %.138, -6291455
  %87 = add i32 %86, %81
  %88 = add i32 %87, %82
  %89 = add i32 %88, %85
  %90 = getelementptr i8, ptr %.0, i64 3
  br label %91

91:                                               ; preds = %67, %80, %74, %60
  %.2 = phi i32 [ %64, %60 ], [ %69, %67 ], [ %78, %74 ], [ %89, %80 ]
  %.128 = phi i32 [ %61, %60 ], [ %.027, %67 ], [ %.027, %74 ], [ %.027, %80 ]
  %.1 = phi ptr [ %51, %60 ], [ %51, %67 ], [ %79, %74 ], [ %90, %80 ]
  %92 = icmp ugt i32 %.2, %0
  br i1 %92, label %get_index_pos.exit.thread, label %93

93:                                               ; preds = %91
  %94 = xor i32 %.128, 1
  br label %50

get_index_pos.exit.thread:                        ; preds = %91, %55, %11, %get_index_pos.exit
  %.026 = phi i32 [ 0, %get_index_pos.exit ], [ 0, %11 ], [ %.128, %91 ], [ %.027, %55 ]
  ret i32 %.026
}